; Function Attrs: nounwind uwtable
define dso_local ptr @llvm_emit_is_no_opt(ptr noundef %0, ptr noundef %1) local_unnamed_addr #0 {
  %3 = getelementptr inbounds i8, ptr %0, i64 64
  %4 = load ptr, ptr %3, align 8
  %5 = load ptr, ptr @type_anyfault, align 8
  %6 = tail call ptr @llvm_get_type(ptr noundef %0, ptr noundef %5) #10
  %7 = tail call ptr @LLVMConstNull(ptr noundef %6) #10
  %8 = tail call ptr @LLVMBuildICmp(ptr noundef %4, i32 noundef 32, ptr noundef %1, ptr noundef %7, ptr noundef nonnull @.str.4) #10
  %9 = tail call ptr @llvm_emit_expect_raw(ptr noundef %0, ptr noundef %8) #10
  ret ptr %9
}